target datalayout = "e-m:e-p270:32:32-p271:32:32-p272:64:64-i64:64-i128:128-f80:128-n8:16:32:64-S128"
target triple = "x86_64-pc-linux-gnu"

%class.ref_vector = type { %class.ref_vector_core }
%class.ref_vector_core = type { %class.ref_manager_wrapper, %class.ptr_vector.30 }
%class.ref_manager_wrapper = type { ptr }
%class.ptr_vector.30 = type { %class.vector.31 }
%class.vector.31 = type { ptr }
%"class.seq_rewriter::op_cache" = type { i32, %class.ref_vector, %class.hashtable }
%class.hashtable = type { %class.core_hashtable.base.50, [4 x i8] }
%class.core_hashtable.base.50 = type <{ ptr, i32, i32, i32 }>
%"struct.seq_rewriter::op_cache::op_entry" = type { i32, ptr, ptr, ptr, ptr }
%class.default_hash_entry.221 = type { i32, i32, %"struct.seq_rewriter::op_cache::op_entry" }

; Function Attrs: mustprogress nounwind uwtable
define linkonce_odr hidden noundef nonnull align 8 dereferenceable(40) ptr @_ZN18default_hash_entryIN12seq_rewriter8op_cache8op_entryEE8get_dataEv(ptr noundef nonnull align 8 dereferenceable(48) %0) #6 comdat align 2 {
  %2 = alloca ptr, align 8
  store ptr %0, ptr %2, align 8, !tbaa !630
  %3 = load ptr, ptr %2, align 8
  %4 = getelementptr inbounds nuw %class.default_hash_entry.221, ptr %3, i32 0, i32 2
  ret ptr %4
}

; Function Attrs: mustprogress uwtable
define linkonce_odr hidden noundef zeroext i1 @_ZNK14core_hashtableI18default_hash_entryIN12seq_rewriter8op_cache8op_entryEENS2_10hash_entryENS2_8eq_entryEE4findERKS3_RS3_(ptr noundef nonnull align 8 dereferenceable(20) %0, ptr noundef nonnull align 8 dereferenceable(40) %1, ptr noundef nonnull align 8 dereferenceable(40) %2) #4 comdat align 2 {
  %4 = alloca i1, align 1
  %5 = alloca ptr, align 8
  %6 = alloca ptr, align 8
  %7 = alloca ptr, align 8
  %8 = alloca ptr, align 8
  %9 = alloca i32, align 4
  store ptr %0, ptr %5, align 8, !tbaa !628
  store ptr %1, ptr %6, align 8, !tbaa !622
  store ptr %2, ptr %7, align 8, !tbaa !622
  %10 = load ptr, ptr %5, align 8
  call void @llvm.lifetime.start.p0(i64 8, ptr %8) #3
  %11 = load ptr, ptr %6, align 8, !tbaa !622
  %12 = call noundef ptr @_ZNK14core_hashtableI18default_hash_entryIN12seq_rewriter8op_cache8op_entryEENS2_10hash_entryENS2_8eq_entryEE9find_coreERKS3_(ptr noundef nonnull align 8 dereferenceable(20) %10, ptr noundef nonnull align 8 dereferenceable(40) %11)
  store ptr %12, ptr %8, align 8, !tbaa !630
  %13 = load ptr, ptr %8, align 8, !tbaa !630
  %14 = icmp ne ptr %13, null
  br i1 %14, label %15, label %19

15:                                               ; preds = %3
  %16 = load ptr, ptr %8, align 8, !tbaa !630
  %17 = call noundef nonnull align 8 dereferenceable(40) ptr @_ZN18default_hash_entryIN12seq_rewriter8op_cache8op_entryEE8get_dataEv(ptr noundef nonnull align 8 dereferenceable(48) %16)
  %18 = load ptr, ptr %7, align 8, !tbaa !622
  call void @llvm.memcpy.p0.p0.i64(ptr align 8 %18, ptr align 8 %17, i64 40, i1 false), !tbaa.struct !631
  store i1 true, ptr %4, align 1
  store i32 1, ptr %9, align 4
  br label %20

19:                                               ; preds = %3
  store i1 false, ptr %4, align 1
  store i32 1, ptr %9, align 4
  br label %20

20:                                               ; preds = %19, %15
  call void @llvm.lifetime.end.p0(i64 8, ptr %8) #3
  %21 = load i1, ptr %4, align 1
  ret i1 %21
}

; Function Attrs: mustprogress nounwind uwtable
define linkonce_odr hidden void @_ZN12seq_rewriter8op_cache8op_entryC2EiP4exprS3_S3_S3_(ptr noundef nonnull align 8 dereferenceable(40) %0, i32 noundef %1, ptr noundef %2, ptr noundef %3, ptr noundef %4, ptr noundef %5) unnamed_addr #6 comdat align 2 {
  %7 = alloca ptr, align 8
  %8 = alloca i32, align 4
  %9 = alloca ptr, align 8
  %10 = alloca ptr, align 8
  %11 = alloca ptr, align 8
  %12 = alloca ptr, align 8
  store ptr %0, ptr %7, align 8, !tbaa !622
  store i32 %1, ptr %8, align 4, !tbaa !19
  store ptr %2, ptr %9, align 8, !tbaa !8
  store ptr %3, ptr %10, align 8, !tbaa !8
  store ptr %4, ptr %11, align 8, !tbaa !8
  store ptr %5, ptr %12, align 8, !tbaa !8
  %13 = load ptr, ptr %7, align 8
  %14 = getelementptr inbounds nuw %"struct.seq_rewriter::op_cache::op_entry", ptr %13, i32 0, i32 0
  %15 = load i32, ptr %8, align 4, !tbaa !19
  store i32 %15, ptr %14, align 8, !tbaa !624
  %16 = getelementptr inbounds nuw %"struct.seq_rewriter::op_cache::op_entry", ptr %13, i32 0, i32 1
  %17 = load ptr, ptr %9, align 8, !tbaa !8
  store ptr %17, ptr %16, align 8, !tbaa !625
  %18 = getelementptr inbounds nuw %"struct.seq_rewriter::op_cache::op_entry", ptr %13, i32 0, i32 2
  %19 = load ptr, ptr %10, align 8, !tbaa !8
  store ptr %19, ptr %18, align 8, !tbaa !626
  %20 = getelementptr inbounds nuw %"struct.seq_rewriter::op_cache::op_entry", ptr %13, i32 0, i32 3
  %21 = load ptr, ptr %11, align 8, !tbaa !8
  store ptr %21, ptr %20, align 8, !tbaa !627
  %22 = getelementptr inbounds nuw %"struct.seq_rewriter::op_cache::op_entry", ptr %13, i32 0, i32 4
  %23 = load ptr, ptr %12, align 8, !tbaa !8
  store ptr %23, ptr %22, align 8, !tbaa !465
  ret void
}

; Function Attrs: mustprogress uwtable
define hidden noundef ptr @_ZN12seq_rewriter8op_cache4findEiP4exprS2_S2_(ptr noundef nonnull align 8 dereferenceable(48) %0, i32 noundef %1, ptr noundef %2, ptr noundef %3, ptr noundef %4) #4 align 2 {
  %6 = alloca ptr, align 8
  %7 = alloca i32, align 4
  %8 = alloca ptr, align 8
  %9 = alloca ptr, align 8
  %10 = alloca ptr, align 8
  %11 = alloca %"struct.seq_rewriter::op_cache::op_entry", align 8
  store ptr %0, ptr %6, align 8, !tbaa !463
  store i32 %1, ptr %7, align 4, !tbaa !19
  store ptr %2, ptr %8, align 8, !tbaa !8
  store ptr %3, ptr %9, align 8, !tbaa !8
  store ptr %4, ptr %10, align 8, !tbaa !8
  %12 = load ptr, ptr %6, align 8
  call void @llvm.lifetime.start.p0(i64 40, ptr %11) #3
  %13 = load i32, ptr %7, align 4, !tbaa !19
  %14 = load ptr, ptr %8, align 8, !tbaa !8
  %15 = load ptr, ptr %9, align 8, !tbaa !8
  %16 = load ptr, ptr %10, align 8, !tbaa !8
  call void @_ZN12seq_rewriter8op_cache8op_entryC2EiP4exprS3_S3_S3_(ptr noundef nonnull align 8 dereferenceable(40) %11, i32 noundef %13, ptr noundef %14, ptr noundef %15, ptr noundef %16, ptr noundef null)
  %17 = getelementptr inbounds nuw %"class.seq_rewriter::op_cache", ptr %12, i32 0, i32 2
  %18 = call noundef zeroext i1 @_ZNK14core_hashtableI18default_hash_entryIN12seq_rewriter8op_cache8op_entryEENS2_10hash_entryENS2_8eq_entryEE4findERKS3_RS3_(ptr noundef nonnull align 8 dereferenceable(20) %17, ptr noundef nonnull align 8 dereferenceable(40) %11, ptr noundef nonnull align 8 dereferenceable(40) %11)
  %19 = getelementptr inbounds nuw %"struct.seq_rewriter::op_cache::op_entry", ptr %11, i32 0, i32 4
  %20 = load ptr, ptr %19, align 8, !tbaa !465
  call void @llvm.lifetime.end.p0(i64 40, ptr %11) #3
  ret ptr %20
}