; Function Attrs: mustprogress uwtable
define hidden noundef ptr @_ZN12seq_rewriter8op_cache4findEiP4exprS2_S2_(ptr noundef nonnull align 8 dereferenceable(48) %0, i32 noundef %1, ptr noundef %2, ptr noundef %3, ptr noundef %4) local_unnamed_addr #3 align 2 {
  %6 = alloca %"struct.seq_rewriter::op_cache::op_entry", align 8
  call void @llvm.lifetime.start.p0(i64 40, ptr nonnull %6) #28
  store i32 %1, ptr %6, align 8, !tbaa !647
  %7 = getelementptr inbounds nuw i8, ptr %6, i64 8
  store ptr %2, ptr %7, align 8, !tbaa !649
  %8 = getelementptr inbounds nuw i8, ptr %6, i64 16
  store ptr %3, ptr %8, align 8, !tbaa !652
  %9 = getelementptr inbounds nuw i8, ptr %6, i64 24
  store ptr %4, ptr %9, align 8, !tbaa !653
  %10 = getelementptr inbounds nuw i8, ptr %6, i64 32
  store ptr null, ptr %10, align 8, !tbaa !651
  %11 = getelementptr inbounds nuw i8, ptr %0, i64 24
  %12 = call noundef ptr @_ZNK14core_hashtableI18default_hash_entryIN12seq_rewriter8op_cache8op_entryEENS2_10hash_entryENS2_8eq_entryEE9find_coreERKS3_(ptr noundef nonnull align 8 dereferenceable(20) %11, ptr noundef nonnull align 8 dereferenceable(40) %6)
  %.not.i.not = icmp eq ptr %12, null
  br i1 %.not.i.not, label %_ZNK14core_hashtableI18default_hash_entryIN12seq_rewriter8op_cache8op_entryEENS2_10hash_entryENS2_8eq_entryEE4findERKS3_RS3_.exit, label %13

13:                                               ; preds = %5
  %14 = getelementptr inbounds nuw i8, ptr %12, i64 8
  call void @llvm.memcpy.p0.p0.i64(ptr noundef nonnull align 8 dereferenceable(40) %6, ptr noundef nonnull align 8 dereferenceable(40) %14, i64 40, i1 false), !tbaa.struct !650
  br label %_ZNK14core_hashtableI18default_hash_entryIN12seq_rewriter8op_cache8op_entryEENS2_10hash_entryENS2_8eq_entryEE4findERKS3_RS3_.exit

_ZNK14core_hashtableI18default_hash_entryIN12seq_rewriter8op_cache8op_entryEENS2_10hash_entryENS2_8eq_entryEE4findERKS3_RS3_.exit: ; preds = %5, %13
  %15 = load ptr, ptr %10, align 8, !tbaa !651
  call void @llvm.lifetime.end.p0(i64 40, ptr nonnull %6) #28
  ret ptr %15
}